target datalayout = "e-m:e-p270:32:32-p271:32:32-p272:64:64-i64:64-i128:128-f80:128-n8:16:32:64-S128"
target triple = "x86_64-pc-linux-gnu"

%struct.BEValue = type { i8, i32, ptr, ptr, ptr }
%struct.Expr_ = type { ptr, %union.SourceSpan, i16, %union.anon.29 }
%union.SourceSpan = type { i64 }
%union.anon.29 = type { %struct.ExprAnySwitch }
%struct.ExprAnySwitch = type { i8, %union.anon.31 }
%union.anon.31 = type { %struct.anon.32 }
%struct.anon.32 = type { ptr, %union.SourceSpan, ptr }
%struct.ExprCall = type { %union.anon.33, i32, i16, ptr, %union.anon.34 }
%union.anon.33 = type { i32 }
%union.anon.34 = type { ptr }
%struct.GenContext_ = type { i8, ptr, ptr, ptr, ptr, ptr, ptr, ptr, ptr, ptr, ptr, ptr, ptr, ptr, ptr, ptr, ptr, ptr, ptr, ptr, ptr, ptr, ptr, ptr, ptr, ptr, ptr, ptr, ptr, ptr, ptr, ptr, ptr, %struct.anon.85, i32, i32, %struct.DebugContext, ptr, ptr, ptr, %struct.BEValue, i8, %union.SourceSpan, ptr, ptr, ptr, ptr }
%struct.anon.85 = type { ptr, ptr, ptr }
%struct.DebugContext = type { i16, ptr, ptr, %struct.DebugFile_, ptr, ptr, ptr, ptr }
%struct.DebugFile_ = type { i16, ptr }

; Function Attrs: nounwind uwtable
define dso_local void @llvm_emit_int_with_bool_builtin(ptr noundef %0, i32 noundef %1, ptr noundef %2, ptr noundef %3, i1 noundef zeroext %4) #0 {
  %6 = alloca ptr, align 8
  %7 = alloca ptr, align 8
  %8 = alloca ptr, align 8
  %9 = alloca ptr, align 8
  %10 = alloca i32, align 4
  %11 = alloca %struct.BEValue, align 8
  %12 = alloca i32, align 4
  %13 = alloca ptr, align 8
  %14 = alloca i32, align 4
  %15 = alloca ptr, align 8
  %16 = alloca ptr, align 8
  %17 = alloca i8, align 1
  %18 = alloca ptr, align 8
  %19 = alloca [2 x ptr], align 16
  %20 = alloca [1 x ptr], align 8
  %21 = alloca ptr, align 8
  store ptr %0, ptr %13, align 8
  store i32 %1, ptr %14, align 4
  store ptr %2, ptr %15, align 8
  store ptr %3, ptr %16, align 8
  %22 = zext i1 %4 to i8
  store i8 %22, ptr %17, align 1
  %23 = load ptr, ptr %16, align 8
  %24 = getelementptr inbounds %struct.Expr_, ptr %23, i32 0, i32 3
  %25 = getelementptr inbounds %struct.ExprCall, ptr %24, i32 0, i32 3
  %26 = load ptr, ptr %25, align 8
  store ptr %26, ptr %18, align 8
  %27 = load ptr, ptr %13, align 8
  %28 = load ptr, ptr %18, align 8
  %29 = getelementptr inbounds [2 x ptr], ptr %19, i64 0, i64 0
  store ptr %27, ptr %7, align 8
  store ptr %28, ptr %8, align 8
  store ptr %29, ptr %9, align 8
  store i32 1, ptr %10, align 4
  store i32 0, ptr %12, align 4
  br label %30

30:                                               ; preds = %34, %5
  %31 = load i32, ptr %12, align 4
  %32 = load i32, ptr %10, align 4
  %33 = icmp ult i32 %31, %32
  br i1 %33, label %34, label %50

34:                                               ; preds = %30
  %35 = load ptr, ptr %7, align 8
  %36 = load ptr, ptr %8, align 8
  %37 = load i32, ptr %12, align 4
  %38 = zext i32 %37 to i64
  %39 = getelementptr inbounds ptr, ptr %36, i64 %38
  %40 = load ptr, ptr %39, align 8
  call void @llvm_emit_expr(ptr noundef %35, ptr noundef %11, ptr noundef %40) #6
  %41 = load ptr, ptr %7, align 8
  call void @llvm_value_rvalue(ptr noundef %41, ptr noundef %11) #6
  %42 = getelementptr inbounds %struct.BEValue, ptr %11, i32 0, i32 3
  %43 = load ptr, ptr %42, align 8
  %44 = load ptr, ptr %9, align 8
  %45 = load i32, ptr %12, align 4
  %46 = zext i32 %45 to i64
  %47 = getelementptr inbounds ptr, ptr %44, i64 %46
  store ptr %43, ptr %47, align 8
  %48 = load i32, ptr %12, align 4
  %49 = add i32 %48, 1
  store i32 %49, ptr %12, align 4
  br label %30, !llvm.loop !10

50:                                               ; preds = %30
  %51 = load ptr, ptr %13, align 8
  %52 = getelementptr inbounds %struct.GenContext_, ptr %51, i32 0, i32 20
  %53 = load ptr, ptr %52, align 8
  store ptr %53, ptr %6, align 8
  %54 = load ptr, ptr %6, align 8
  %55 = call ptr @LLVMConstNull(ptr noundef %54) #6
  %56 = getelementptr inbounds [2 x ptr], ptr %19, i64 0, i64 1
  store ptr %55, ptr %56, align 8
  %57 = getelementptr inbounds [1 x ptr], ptr %20, i64 0, i64 0
  %58 = getelementptr inbounds [2 x ptr], ptr %19, i64 0, i64 0
  %59 = load ptr, ptr %58, align 16
  %60 = call ptr @LLVMTypeOf(ptr noundef %59)
  store ptr %60, ptr %57, align 8
  %61 = load ptr, ptr %13, align 8
  %62 = load i32, ptr %14, align 4
  %63 = getelementptr inbounds [1 x ptr], ptr %20, i64 0, i64 0
  %64 = getelementptr inbounds [2 x ptr], ptr %19, i64 0, i64 0
  %65 = call ptr @llvm_emit_call_intrinsic(ptr noundef %61, i32 noundef %62, ptr noundef %63, i32 noundef 1, ptr noundef %64, i32 noundef 2)
  store ptr %65, ptr %21, align 8
  %66 = load ptr, ptr %15, align 8
  %67 = load ptr, ptr %21, align 8
  %68 = load ptr, ptr %16, align 8
  %69 = getelementptr inbounds %struct.Expr_, ptr %68, i32 0, i32 0
  %70 = load ptr, ptr %69, align 8
  call void @llvm_value_set(ptr noundef %66, ptr noundef %67, ptr noundef %70)
  ret void
}