; Function Attrs: nounwind uwtable
define dso_local void @llvm_emit_int_with_bool_builtin(ptr noundef %0, i32 noundef %1, ptr noundef %2, ptr nocapture noundef readonly %3, i1 zeroext %4) local_unnamed_addr #0 {
.critedge:
  %5 = alloca %struct.BEValue, align 8
  %6 = alloca [2 x ptr], align 16
  %7 = alloca [1 x ptr], align 8
  %8 = getelementptr inbounds i8, ptr %3, i64 40
  %9 = load ptr, ptr %8, align 8
  %10 = load ptr, ptr %9, align 8
  call void @llvm_emit_expr(ptr noundef %0, ptr noundef nonnull %5, ptr noundef %10) #8
  call void @llvm_value_rvalue(ptr noundef %0, ptr noundef nonnull %5) #8
  %11 = getelementptr inbounds i8, ptr %5, i64 16
  %12 = load ptr, ptr %11, align 8
  store ptr %12, ptr %6, align 16
  %13 = getelementptr inbounds i8, ptr %0, i64 160
  %14 = load ptr, ptr %13, align 8
  %15 = call ptr @LLVMConstNull(ptr noundef %14) #8
  %16 = getelementptr inbounds i8, ptr %6, i64 8
  store ptr %15, ptr %16, align 8
  %17 = call ptr @LLVMTypeOf(ptr noundef %12) #8
  store ptr %17, ptr %7, align 8
  %18 = call ptr @llvm_emit_call_intrinsic(ptr noundef %0, i32 noundef %1, ptr noundef nonnull %7, i32 noundef 1, ptr noundef nonnull %6, i32 noundef 2) #8
  %19 = load ptr, ptr %3, align 8
  call void @llvm_value_set(ptr noundef %2, ptr noundef %18, ptr noundef %19) #8
  ret void
}